Certificate:
    Data:
        Version: 3 (0x2)
        Serial Number: 1 (0x1)
    Signature Algorithm: sha256WithRSAEncryption
        Issuer: C=US, ST=Maryland, L=Baltimore, O=Test CA, Limited, OU=Server Research Department, CN=Test CA/emailAddress=test@example.com
        Validity
            Not Before: Jun 21 14:49:34 2019 GMT
            Not After : Mar 17 14:49:34 2022 GMT
        Subject: C=US, ST=MD, L=Baltimore, O=Test Server, Limited, CN=Test Server
        Subject Public Key Info:
            Public Key Algorithm: rsaEncryption
                Public-Key: (2048 bit)
                Modulus:
                    00:e0:f2:e4:55:12:b9:96:25:5d:7f:b1:72:2a:46:
                    d8:09:1a:4a:dd:7e:22:fb:97:57:67:66:c4:10:e3:
                    07:8c:8d:a2:8d:85:d2:4b:5f:ae:ca:0d:02:6d:b1:
                    f4:80:4c:75:b5:3c:43:5e:08:f8:53:9b:8f:5b:a7:
                    57:02:be:e1:f6:08:46:f3:c6:da:5a:02:b1:72:5f:
                    0d:c5:ec:e9:93:a1:e9:55:91:71:fb:ad:db:ea:ab:
                    01:c5:ae:27:55:e6:d1:a0:e1:0c:d9:f6:49:ab:9e:
                    47:7a:9f:bc:c0:78:56:f9:e4:32:be:9a:94:f0:aa:
                    17:9e:15:4f:aa:dc:f8:6b:4e:47:f7:cb:03:9a:56:
                    b9:27:9b:5d:b5:53:50:b4:ad:0b:76:97:d7:f7:81:
                    ba:f6:c0:c9:b6:1b:13:80:30:77:0c:e5:e4:42:99:
                    28:ed:6b:75:43:c7:d2:84:3c:7b:6f:d3:75:e9:54:
                    cc:1c:f2:48:f0:5f:ea:35:67:78:a9:4f:40:b5:c8:
                    2c:d7:22:2a:96:e6:0b:43:b1:9c:8d:b0:99:67:88:
                    ab:13:0f:40:9d:a0:62:73:2f:31:fe:33:c9:e7:cc:
                    15:f3:5f:3f:28:7f:7c:de:2e:d3:87:3a:5f:c1:ea:
                    90:4f:92:96:3e:20:30:e2:c5:30:9e:29:75:af:bd:
                    93:bd
                Exponent: 65537 (0x10001)
        X509v3 extensions:
            X509v3 Subject Key Identifier: 
                45:AE:98:BD:8A:B2:69:B6:7F:44:BF:44:BD:9E:EB:FE:4C:4D:CC:16
            X509v3 Authority Key Identifier: 
                keyid:62:FA:22:6D:4C:AB:A2:14:8E:91:67:C2:13:12:C1:5B:60:D9:37:35

            X509v3 Basic Constraints: 
                CA:FALSE
            X509v3 Key Usage: 
                Digital Signature, Key Encipherment
            X509v3 Subject Alternative Name: 
                DNS:example.com, DNS:www.example.com, DNS:mail.example.com, DNS:ftp.example.com
            Netscape Comment: 
                OpenSSL Generated Certificate
    Signature Algorithm: sha256WithRSAEncryption
         1e:a5:2c:23:91:53:6c:fb:97:30:0c:d1:6c:f3:bf:8d:c2:c4:
         ce:db:ec:e8:2e:e7:78:16:16:1b:5e:e1:71:61:7e:da:48:d3:
         1e:fd:48:93:62:0c:44:71:7d:bf:61:16:12:c6:5f:75:29:90:
         34:c9:0b:d8:42:38:de:9d:ba:b8:df:8e:7d:36:83:73:05:f2:
         cc:35:3f:e3:c3:b8:2f:09:bb:06:86:c7:57:db:fe:ac:b7:ed:
         ac:f8:39:2f:2d:97:a9:9e:23:9a:f9:2c:0e:c3:02:96:e5:95:
         81:4d:21:e2:96:cf:9b:8d:ec:fc:ca:9a:f2:54:21:ce:70:8c:
         55:36:a4:b7:10:06:77:c6:f5:a0:0d:2d:09:64:52:33:c7:b8:
         c4:e6:37:b5:43:24:c4:66:c3:d4:d5:d1:6d:04:01:9f:2d:1d:
         49:ea:00:ed:2e:f8:68:53:9b:ab:3b:c2:61:b8:7d:f9:9f:ed:
         6e:5c:f2:fb:60:b8:ef:c0:cf:3c:36:c6:01:41:0e:3f:2e:7f:
         55:91:1d:3f:08:e5:f6:89:65:13:2e:52:db:55:ad:00:b2:74:
         08:92:26:a4:58:48:b4:25:ac:b6:22:39:fd:00:8e:76:54:1d:
         15:32:17:7f:9a:87:4d:cc:ff:0b:dc:b0:55:6a:26:da:fc:cb:
         f9:77:34:b5:a2:ba:ec:a9:21:23:d3:9a:0b:ff:16:cf:c7:55:
         f0:ed:65:ca:f0:c2:f4:11:d1:0b:75:4a:81:d1:e5:5c:73:c7:
         a5:70:8e:ef:8b:68:e9:18:d5:90:52:9d:82:0e:f0:01:43:ba:
         2f:94:fe:ee:42:51:7e:f7:85:c4:c3:08:2f:f0:bd:6d:6c:c8:
         fe:1e:8b:76:6e:95:04:39:ef:57:75:9a:eb:32:74:f9:ad:6a:
         5b:fe:e0:0b:78:ce:2d:9b:9d:03:cf:4c:ca:a9:2d:24:e7:d9:
         09:4c:59:74:af:b8:4f:02:18:c2:c3:9b:c5:6f:61:32:4c:87:
         4f:32:fe:63:95:cf:7c:a2:86:9a:35:91:98:79:76:dc:d0:48:
         6f:4f:40:73:0a:7e:c3:5b:26:e3:2a:80:f8:dd:f5:ec:d8:1a:
         a6:e1:ba:7a:c0:2a:6f:e1:87:75:ff:dc:3b:bf:42:03:2a:98:
         1c:e7:d1:a1:69:ec:d4:ec:bd:96:45:16:82:92:0f:2d:bb:00:
         b9:6d:0c:69:75:c3:63:42:07:ba:bb:7b:d1:d6:ff:d0:bd:7f:
         e5:5b:50:f9:2d:8d:a0:e9:e2:35:cf:19:88:bf:49:58:ae:11:
         b7:35:71:4c:fb:54:29:b2:b0:c1:33:f4:bf:01:dd:69:94:74:
         6d:f3:23:86:d5:06:1c:85
-----BEGIN CERTIFICATE-----
MIIFXDCCA0SgAwIBAgIBATANBgkqhkiG9w0BAQsFADCBpzELMAkGA1UEBhMCVVMx
ETAPBgNVBAgMCE1hcnlsYW5kMRIwEAYDVQQHDAlCYWx0aW1vcmUxGTAXBgNVBAoM
EFRlc3QgQ0EsIExpbWl0ZWQxIzAhBgNVBAsMGlNlcnZlciBSZXNlYXJjaCBEZXBh
cnRtZW50MRAwDgYDVQQDDAdUZXN0IENBMR8wHQYJKoZIhvcNAQkBFhB0ZXN0QGV4
YW1wbGUuY29tMB4XDTE5MDYyMTE0NDkzNFoXDTIyMDMxNzE0NDkzNFowYzELMAkG
A1UEBhMCVVMxCzAJBgNVBAgMAk1EMRIwEAYDVQQHDAlCYWx0aW1vcmUxHTAbBgNV
BAoMFFRlc3QgU2VydmVyLCBMaW1pdGVkMRQwEgYDVQQDDAtUZXN0IFNlcnZlcjCC
ASIwDQYJKoZIhvcNAQEBBQADggEPADCCAQoCggEBAODy5FUSuZYlXX+xcipG2Aka
St1+IvuXV2dmxBDjB4yNoo2F0ktfrsoNAm2x9IBMdbU8Q14I+FObj1unVwK+4fYI
RvPG2loCsXJfDcXs6ZOh6VWRcfut2+qrAcWuJ1Xm0aDhDNn2SaueR3qfvMB4Vvnk
Mr6alPCqF54VT6rc+GtOR/fLA5pWuSebXbVTULStC3aX1/eBuvbAybYbE4Awdwzl
5EKZKO1rdUPH0oQ8e2/TdelUzBzySPBf6jVneKlPQLXILNciKpbmC0OxnI2wmWeI
qxMPQJ2gYnMvMf4zyefMFfNfPyh/fN4u04c6X8HqkE+Slj4gMOLFMJ4pda+9k70C
AwEAAaOB1TCB0jAdBgNVHQ4EFgQURa6YvYqyabZ/RL9EvZ7r/kxNzBYwHwYDVR0j
BBgwFoAUYvoibUyrohSOkWfCExLBW2DZNzUwCQYDVR0TBAIwADALBgNVHQ8EBAMC
BaAwSgYDVR0RBEMwQYILZXhhbXBsZS5jb22CD3d3dy5leGFtcGxlLmNvbYIQbWFp
bC5leGFtcGxlLmNvbYIPZnRwLmV4YW1wbGUuY29tMCwGCWCGSAGG+EIBDQQfFh1P
cGVuU1NMIEdlbmVyYXRlZCBDZXJ0aWZpY2F0ZTANBgkqhkiG9w0BAQsFAAOCAgEA
HqUsI5FTbPuXMAzRbPO/jcLEztvs6C7neBYWG17hcWF+2kjTHv1Ik2IMRHF9v2EW
EsZfdSmQNMkL2EI43p26uN+OfTaDcwXyzDU/48O4Lwm7BobHV9v+rLftrPg5Ly2X
qZ4jmvksDsMCluWVgU0h4pbPm43s/Mqa8lQhznCMVTaktxAGd8b1oA0tCWRSM8e4
xOY3tUMkxGbD1NXRbQQBny0dSeoA7S74aFObqzvCYbh9+Z/tblzy+2C478DPPDbG
AUEOPy5/VZEdPwjl9ollEy5S21WtALJ0CJImpFhItCWstiI5/QCOdlQdFTIXf5qH
Tcz/C9ywVWom2vzL+Xc0taK67KkhI9OaC/8Wz8dV8O1lyvDC9BHRC3VKgdHlXHPH
pXCO74to6RjVkFKdgg7wAUO6L5T+7kJRfveFxMMIL/C9bWzI/h6Ldm6VBDnvV3Wa
6zJ0+a1qW/7gC3jOLZudA89MyqktJOfZCUxZdK+4TwIYwsObxW9hMkyHTzL+Y5XP
fKKGmjWRmHl23NBIb09Acwp+w1sm4yqA+N317NgapuG6esAqb+GHdf/cO79CAyqY
HOfRoWns1Oy9lkUWgpIPLbsAuW0MaXXDY0IHurt70db/0L1/5VtQ+S2NoOniNc8Z
iL9JWK4RtzVxTPtUKbKwwTP0vwHdaZR0bfMjhtUGHIU=
-----END CERTIFICATE-----
