Certificate:
    Data:
        Version: 3 (0x2)
        Serial Number: 2 (0x2)
    Signature Algorithm: sha256WithRSAEncryption
        Issuer: C=US, ST=Maryland, L=Baltimore, O=Test CA, Limited, OU=Server Research Department, CN=Test CA/emailAddress=test@example.com
        Validity
            Not Before: Jun 24 07:35:02 2019 GMT
            Not After : Mar 20 07:35:02 2022 GMT
        Subject: C=US, ST=MD, L=Baltimore, O=Test Server, Limited, CN=Test Server
        Subject Public Key Info:
            Public Key Algorithm: rsaEncryption
                Public-Key: (2048 bit)
                Modulus:
                    00:cb:9f:ef:71:96:d4:87:21:68:5c:2f:c3:5e:4a:
                    f0:16:b9:79:53:ac:3c:ee:18:c2:b2:d0:94:9e:35:
                    b8:48:67:e0:4c:39:fd:e8:53:11:50:15:6f:f7:99:
                    5d:0a:6d:0f:02:91:a0:82:7b:37:1d:ce:b1:ec:de:
                    70:fe:7e:0e:31:e1:30:fc:a8:56:7f:f7:03:13:92:
                    4b:31:bb:5e:20:42:21:78:ec:a5:23:c2:e5:2c:ad:
                    cc:dd:30:c4:7e:59:e3:0e:fd:d6:52:a9:0f:9a:a0:
                    70:d1:20:69:be:18:a8:6a:d6:18:3a:04:86:1b:01:
                    ee:82:d3:19:85:ed:a1:46:4a:fc:2e:03:bf:67:45:
                    79:d8:37:63:45:c7:6e:89:ae:ab:c2:f2:f8:13:50:
                    f6:cc:42:a8:8f:33:91:4f:c8:a7:ae:a8:89:70:cf:
                    77:3d:62:10:3a:10:f9:e6:52:ea:e1:bf:39:a9:a2:
                    65:f7:d8:86:ac:21:63:cc:35:c8:fd:7c:bf:74:c0:
                    fb:6b:82:9f:f3:5d:97:5e:9a:08:85:a0:bf:77:5d:
                    2e:61:9a:f2:af:8f:7a:33:61:ee:9b:21:9c:5c:62:
                    f6:d2:81:af:1e:36:84:ba:03:76:f0:be:85:cd:63:
                    29:6c:a5:00:77:c0:ab:55:f1:72:6f:d7:e1:e1:f0:
                    76:09
                Exponent: 65537 (0x10001)
        X509v3 extensions:
            X509v3 Subject Key Identifier: 
                0F:BA:EB:60:E4:21:22:18:DB:2C:CD:DA:0C:36:CD:4E:00:D5:3D:DD
            X509v3 Authority Key Identifier: 
                keyid:62:FA:22:6D:4C:AB:A2:14:8E:91:67:C2:13:12:C1:5B:60:D9:37:35

            X509v3 Basic Constraints: 
                CA:FALSE
            X509v3 Key Usage: 
                Digital Signature, Key Encipherment
            X509v3 Subject Alternative Name: 
                DNS:example.com, DNS:www.example.com, DNS:mail.example.com, DNS:ftp.example.com
            Netscape Comment: 
                OpenSSL Generated Certificate
    Signature Algorithm: sha256WithRSAEncryption
         5a:41:a8:6d:24:2e:38:bb:19:26:37:fa:2d:38:9f:7c:2a:f1:
         85:b9:90:17:91:9d:5c:c3:58:18:43:10:e7:70:ec:65:f4:f3:
         37:77:ee:fb:36:eb:ec:ab:43:bf:16:ec:ee:21:43:ce:49:30:
         9f:dd:85:1f:fc:9a:f9:0d:13:0e:37:05:5a:f1:9c:a2:da:48:
         b4:e0:d3:be:e6:20:f5:c1:65:70:d3:bb:40:c1:64:9b:03:b8:
         5f:1c:e6:8c:21:f1:24:a1:42:a0:d5:79:cb:5e:17:82:ce:b8:
         00:91:94:48:88:9b:56:b1:0b:12:e2:d9:15:53:e1:41:08:d9:
         8c:4d:60:04:25:52:03:fc:8b:77:50:96:60:c2:15:ee:cf:a3:
         4d:d1:3f:eb:51:ed:20:c6:dc:b5:8c:36:61:46:84:21:47:0a:
         bb:fe:ea:cb:05:1f:b3:de:24:8f:21:0d:29:72:b1:d1:5d:bc:
         5f:33:34:10:de:03:ce:1c:a6:b8:98:ea:3b:53:39:be:1e:76:
         3e:fb:2c:25:01:30:d2:c9:54:bd:75:b7:ed:b5:e8:7c:cb:d9:
         85:e8:e0:23:79:86:e9:58:8e:e2:e7:6f:f6:cc:ac:04:b0:15:
         16:29:a5:cd:b8:c7:22:83:82:bb:20:76:dd:dc:95:40:dd:c6:
         26:06:97:f2:bf:3b:31:26:58:69:f3:82:b2:08:f5:0f:b7:7a:
         46:4c:6e:f1:6e:54:98:d9:23:1e:7c:10:cd:99:5d:79:43:53:
         d5:5a:6d:ec:53:9a:be:8c:bb:53:cc:6d:1c:ba:c5:4b:b0:e1:
         22:5e:9c:10:82:3c:9a:27:9c:b6:3e:e0:e7:b3:73:dd:c1:d5:
         1d:f6:83:f2:3f:f1:cb:c3:6d:3a:8e:b7:b9:31:79:61:4c:74:
         1e:e0:47:84:e5:2f:ce:45:24:23:82:57:95:df:3d:d2:4b:de:
         12:75:8e:78:54:6c:ef:9b:5f:b1:c9:5b:72:19:a7:45:8e:6b:
         f6:e7:01:3f:44:68:46:4f:9c:27:02:99:aa:07:80:74:9a:ec:
         71:c3:8d:81:a0:b3:82:2b:bb:96:25:d1:5e:ca:96:2a:fa:1d:
         4c:9e:d1:a5:79:fb:d8:b6:c4:ca:2a:93:29:38:34:a8:0b:1f:
         ee:4f:26:b8:66:61:6c:c9:28:7b:bf:78:c5:7b:04:2b:05:18:
         f7:4e:43:b4:54:48:8c:67:32:77:96:b4:b9:ff:8a:bc:46:d2:
         87:d2:d2:19:e1:1d:bd:22:de:93:36:93:ba:4f:d2:f7:80:2d:
         22:a0:0c:9e:35:8e:e9:2a:71:66:b6:b6:3c:a8:6a:83:da:4a:
         ff:d7:21:45:fd:fa:a9:8c
-----BEGIN CERTIFICATE-----
MIIFXDCCA0SgAwIBAgIBAjANBgkqhkiG9w0BAQsFADCBpzELMAkGA1UEBhMCVVMx
ETAPBgNVBAgMCE1hcnlsYW5kMRIwEAYDVQQHDAlCYWx0aW1vcmUxGTAXBgNVBAoM
EFRlc3QgQ0EsIExpbWl0ZWQxIzAhBgNVBAsMGlNlcnZlciBSZXNlYXJjaCBEZXBh
cnRtZW50MRAwDgYDVQQDDAdUZXN0IENBMR8wHQYJKoZIhvcNAQkBFhB0ZXN0QGV4
YW1wbGUuY29tMB4XDTE5MDYyNDA3MzUwMloXDTIyMDMyMDA3MzUwMlowYzELMAkG
A1UEBhMCVVMxCzAJBgNVBAgMAk1EMRIwEAYDVQQHDAlCYWx0aW1vcmUxHTAbBgNV
BAoMFFRlc3QgU2VydmVyLCBMaW1pdGVkMRQwEgYDVQQDDAtUZXN0IFNlcnZlcjCC
ASIwDQYJKoZIhvcNAQEBBQADggEPADCCAQoCggEBAMuf73GW1IchaFwvw15K8Ba5
eVOsPO4YwrLQlJ41uEhn4Ew5/ehTEVAVb/eZXQptDwKRoIJ7Nx3OsezecP5+DjHh
MPyoVn/3AxOSSzG7XiBCIXjspSPC5SytzN0wxH5Z4w791lKpD5qgcNEgab4YqGrW
GDoEhhsB7oLTGYXtoUZK/C4Dv2dFedg3Y0XHbomuq8Ly+BNQ9sxCqI8zkU/Ip66o
iXDPdz1iEDoQ+eZS6uG/OamiZffYhqwhY8w1yP18v3TA+2uCn/Ndl16aCIWgv3dd
LmGa8q+PejNh7pshnFxi9tKBrx42hLoDdvC+hc1jKWylAHfAq1Xxcm/X4eHwdgkC
AwEAAaOB1TCB0jAdBgNVHQ4EFgQUD7rrYOQhIhjbLM3aDDbNTgDVPd0wHwYDVR0j
BBgwFoAUYvoibUyrohSOkWfCExLBW2DZNzUwCQYDVR0TBAIwADALBgNVHQ8EBAMC
BaAwSgYDVR0RBEMwQYILZXhhbXBsZS5jb22CD3d3dy5leGFtcGxlLmNvbYIQbWFp
bC5leGFtcGxlLmNvbYIPZnRwLmV4YW1wbGUuY29tMCwGCWCGSAGG+EIBDQQfFh1P
cGVuU1NMIEdlbmVyYXRlZCBDZXJ0aWZpY2F0ZTANBgkqhkiG9w0BAQsFAAOCAgEA
WkGobSQuOLsZJjf6LTiffCrxhbmQF5GdXMNYGEMQ53DsZfTzN3fu+zbr7KtDvxbs
7iFDzkkwn92FH/ya+Q0TDjcFWvGcotpItODTvuYg9cFlcNO7QMFkmwO4XxzmjCHx
JKFCoNV5y14Xgs64AJGUSIibVrELEuLZFVPhQQjZjE1gBCVSA/yLd1CWYMIV7s+j
TdE/61HtIMbctYw2YUaEIUcKu/7qywUfs94kjyENKXKx0V28XzM0EN4DzhymuJjq
O1M5vh52PvssJQEw0slUvXW37bXofMvZhejgI3mG6ViO4udv9sysBLAVFimlzbjH
IoOCuyB23dyVQN3GJgaX8r87MSZYafOCsgj1D7d6Rkxu8W5UmNkjHnwQzZldeUNT
1Vpt7FOavoy7U8xtHLrFS7DhIl6cEII8miectj7g57Nz3cHVHfaD8j/xy8NtOo63
uTF5YUx0HuBHhOUvzkUkI4JXld890kveEnWOeFRs75tfsclbchmnRY5r9ucBP0Ro
Rk+cJwKZqgeAdJrsccONgaCzgiu7liXRXsqWKvodTJ7RpXn72LbEyiqTKTg0qAsf
7k8muGZhbMkoe794xXsEKwUY905DtFRIjGcyd5a0uf+KvEbSh9LSGeEdvSLekzaT
uk/S94AtIqAMnjWO6SpxZra2PKhqg9pK/9chRf36qYw=
-----END CERTIFICATE-----
