Certificate:
    Data:
        Version: 3 (0x2)
        Serial Number: 3 (0x3)
    Signature Algorithm: sha256WithRSAEncryption
        Issuer: C=US, ST=Maryland, L=Baltimore, O=Test CA, Limited, OU=Server Research Department, CN=Test CA/emailAddress=test@example.com
        Validity
            Not Before: Jun 24 07:36:28 2019 GMT
            Not After : Mar 20 07:36:28 2022 GMT
        Subject: C=US, ST=MD, L=Baltimore, O=Test Server, Limited, CN=Test Server
        Subject Public Key Info:
            Public Key Algorithm: rsaEncryption
                Public-Key: (2048 bit)
                Modulus:
                    00:d1:bf:69:39:a0:ba:e2:d5:cf:8b:64:35:55:93:
                    a4:4f:8c:e1:e7:4e:f4:05:be:0a:b5:bd:b5:2e:84:
                    42:ec:27:cb:27:70:01:d6:22:aa:d4:a5:c8:a8:34:
                    89:08:65:51:a0:4a:6f:61:be:64:46:6d:6b:ee:8e:
                    c1:c2:37:42:39:c0:9c:80:9b:46:90:e1:29:73:3e:
                    99:31:87:8e:e4:7d:ca:4b:b1:da:f9:39:1e:bf:61:
                    66:01:18:82:8f:e8:2e:73:e2:79:9a:05:ad:cc:f4:
                    13:bd:cd:aa:6c:2b:01:4a:1b:34:45:d9:61:ee:bc:
                    82:46:41:93:6e:13:45:aa:ae:4a:50:ab:1e:a4:15:
                    26:c2:cb:47:91:59:21:30:a9:2d:46:3a:90:e9:b8:
                    92:d6:04:2d:61:5e:2d:f0:ee:16:ce:9e:47:67:32:
                    43:d6:09:d7:11:63:36:1b:99:45:b7:55:85:1d:97:
                    f1:a5:ad:47:7a:7d:51:97:e9:71:63:bb:35:75:f6:
                    26:37:2e:58:ff:7e:e6:9e:35:86:1e:e2:86:39:23:
                    20:4b:55:33:b2:6f:f8:ce:f2:02:a1:70:a5:45:82:
                    9e:57:86:55:74:99:92:b8:52:dd:f1:08:96:2a:4b:
                    f6:0a:18:10:d2:84:69:8c:d3:04:7b:8d:fe:e5:30:
                    09:07
                Exponent: 65537 (0x10001)
        X509v3 extensions:
            X509v3 Subject Key Identifier: 
                C7:8A:8C:22:8E:CE:ED:9E:24:01:3D:46:E6:AF:EF:8D:6D:43:66:12
            X509v3 Authority Key Identifier: 
                keyid:62:FA:22:6D:4C:AB:A2:14:8E:91:67:C2:13:12:C1:5B:60:D9:37:35

            X509v3 Basic Constraints: 
                CA:FALSE
            X509v3 Key Usage: 
                Digital Signature, Key Encipherment
            X509v3 Subject Alternative Name: 
                DNS:example.com, DNS:www.example.com, DNS:mail.example.com, DNS:ftp.example.com
            Netscape Comment: 
                OpenSSL Generated Certificate
    Signature Algorithm: sha256WithRSAEncryption
         8c:28:9b:99:7b:f9:19:53:b8:df:80:b1:9a:d3:42:15:25:97:
         5a:0d:e4:65:8d:5a:2e:1c:eb:18:c6:88:e2:38:fd:49:16:09:
         fa:a1:c3:dd:aa:b3:ea:cb:2c:a5:fd:91:04:52:c0:b3:14:25:
         4e:1a:13:76:50:48:89:a0:bd:bb:10:6e:b6:5a:52:73:f5:8e:
         a4:c2:d2:de:e2:7a:ed:ec:59:6f:3e:cd:11:c3:cf:6c:a8:eb:
         7d:45:63:17:01:c1:bc:85:00:8d:c8:d7:42:9f:3c:19:07:c7:
         c6:5e:5c:b6:fd:7f:2e:a9:1d:be:42:b3:1d:62:8f:3c:d1:ad:
         9b:10:09:d8:f4:27:79:99:33:53:7f:06:8a:b4:b8:b7:75:df:
         2c:96:8e:c7:b6:f7:55:bf:56:94:ec:19:a1:21:c7:2e:80:ed:
         89:c4:3a:9d:00:c8:38:dd:11:13:e5:82:bd:a0:67:ac:f7:9e:
         42:41:ae:42:12:bb:6e:3d:8f:ff:de:a8:a4:ed:8b:a6:86:65:
         53:be:eb:0c:30:7c:82:1d:0a:66:a0:f3:18:c1:60:71:8f:77:
         38:ea:11:3f:13:c5:04:27:3d:b5:7b:de:19:b5:9e:88:d7:d9:
         fd:bd:44:24:df:81:e0:b6:ca:b0:14:98:3b:ba:6c:83:0b:63:
         66:91:af:29:d8:f8:3d:fd:b4:9c:44:ff:e1:80:4d:46:db:2c:
         d5:31:3e:95:d8:ce:45:aa:ea:a1:db:15:9c:c7:9d:e1:c7:c9:
         9a:13:8d:f0:81:40:20:05:09:90:d2:ba:cd:fe:da:74:da:34:
         c2:1c:7e:42:8d:0b:66:36:4c:59:87:ec:61:7a:e7:53:76:d3:
         b3:4a:c1:a2:6b:66:dc:18:8e:9f:e8:24:81:dd:75:e8:ea:40:
         8d:02:dd:d5:1b:7b:65:3c:c8:a7:8d:92:d3:71:77:9b:13:4f:
         7b:e9:db:e4:ac:48:ad:ee:63:a2:07:cd:3b:1b:fe:2f:e3:6f:
         27:39:10:75:fa:f8:60:a9:c3:c3:5f:30:98:0b:fc:cb:0c:e1:
         23:29:31:11:98:0f:6b:fb:e4:80:3c:fa:f5:ea:84:1e:51:f8:
         5c:7e:c8:4b:6a:5a:b5:04:fe:63:93:f3:e6:72:72:76:53:20:
         d5:70:27:fb:d8:4f:30:46:b4:48:8e:72:cb:28:48:36:4a:69:
         f0:bc:bf:e1:f2:58:e6:4a:d3:f6:ee:4c:8c:e1:2a:5f:53:12:
         6a:57:6d:55:6f:3a:8e:a7:c6:c4:a7:db:f8:91:f7:8c:d0:0a:
         c0:24:f3:21:9d:0e:e5:22:23:81:84:06:b9:1b:e4:db:bc:f4:
         a5:60:1b:bb:a7:ef:4c:ab
-----BEGIN CERTIFICATE-----
MIIFXDCCA0SgAwIBAgIBAzANBgkqhkiG9w0BAQsFADCBpzELMAkGA1UEBhMCVVMx
ETAPBgNVBAgMCE1hcnlsYW5kMRIwEAYDVQQHDAlCYWx0aW1vcmUxGTAXBgNVBAoM
EFRlc3QgQ0EsIExpbWl0ZWQxIzAhBgNVBAsMGlNlcnZlciBSZXNlYXJjaCBEZXBh
cnRtZW50MRAwDgYDVQQDDAdUZXN0IENBMR8wHQYJKoZIhvcNAQkBFhB0ZXN0QGV4
YW1wbGUuY29tMB4XDTE5MDYyNDA3MzYyOFoXDTIyMDMyMDA3MzYyOFowYzELMAkG
A1UEBhMCVVMxCzAJBgNVBAgMAk1EMRIwEAYDVQQHDAlCYWx0aW1vcmUxHTAbBgNV
BAoMFFRlc3QgU2VydmVyLCBMaW1pdGVkMRQwEgYDVQQDDAtUZXN0IFNlcnZlcjCC
ASIwDQYJKoZIhvcNAQEBBQADggEPADCCAQoCggEBANG/aTmguuLVz4tkNVWTpE+M
4edO9AW+CrW9tS6EQuwnyydwAdYiqtSlyKg0iQhlUaBKb2G+ZEZta+6OwcI3QjnA
nICbRpDhKXM+mTGHjuR9ykux2vk5Hr9hZgEYgo/oLnPieZoFrcz0E73NqmwrAUob
NEXZYe68gkZBk24TRaquSlCrHqQVJsLLR5FZITCpLUY6kOm4ktYELWFeLfDuFs6e
R2cyQ9YJ1xFjNhuZRbdVhR2X8aWtR3p9UZfpcWO7NXX2JjcuWP9+5p41hh7ihjkj
IEtVM7Jv+M7yAqFwpUWCnleGVXSZkrhS3fEIlipL9goYENKEaYzTBHuN/uUwCQcC
AwEAAaOB1TCB0jAdBgNVHQ4EFgQUx4qMIo7O7Z4kAT1G5q/vjW1DZhIwHwYDVR0j
BBgwFoAUYvoibUyrohSOkWfCExLBW2DZNzUwCQYDVR0TBAIwADALBgNVHQ8EBAMC
BaAwSgYDVR0RBEMwQYILZXhhbXBsZS5jb22CD3d3dy5leGFtcGxlLmNvbYIQbWFp
bC5leGFtcGxlLmNvbYIPZnRwLmV4YW1wbGUuY29tMCwGCWCGSAGG+EIBDQQfFh1P
cGVuU1NMIEdlbmVyYXRlZCBDZXJ0aWZpY2F0ZTANBgkqhkiG9w0BAQsFAAOCAgEA
jCibmXv5GVO434CxmtNCFSWXWg3kZY1aLhzrGMaI4jj9SRYJ+qHD3aqz6ssspf2R
BFLAsxQlThoTdlBIiaC9uxButlpSc/WOpMLS3uJ67exZbz7NEcPPbKjrfUVjFwHB
vIUAjcjXQp88GQfHxl5ctv1/LqkdvkKzHWKPPNGtmxAJ2PQneZkzU38GirS4t3Xf
LJaOx7b3Vb9WlOwZoSHHLoDticQ6nQDION0RE+WCvaBnrPeeQkGuQhK7bj2P/96o
pO2LpoZlU77rDDB8gh0KZqDzGMFgcY93OOoRPxPFBCc9tXveGbWeiNfZ/b1EJN+B
4LbKsBSYO7psgwtjZpGvKdj4Pf20nET/4YBNRtss1TE+ldjORarqodsVnMed4cfJ
mhON8IFAIAUJkNK6zf7adNo0whx+Qo0LZjZMWYfsYXrnU3bTs0rBomtm3BiOn+gk
gd116OpAjQLd1Rt7ZTzIp42S03F3mxNPe+nb5KxIre5jogfNOxv+L+NvJzkQdfr4
YKnDw18wmAv8ywzhIykxEZgPa/vkgDz69eqEHlH4XH7IS2patQT+Y5Pz5nJydlMg
1XAn+9hPMEa0SI5yyyhINkpp8Ly/4fJY5krT9u5MjOEqX1MSaldtVW86jqfGxKfb
+JH3jNAKwCTzIZ0O5SIjgYQGuRvk27z0pWAbu6fvTKs=
-----END CERTIFICATE-----
